; Function Attrs: mustprogress nofree norecurse nosync nounwind sspstrong willreturn memory(argmem: write) uwtable
define internal void @tpci200_write_cfg(ptr noundef writeonly captures(none) %opaque, i64 noundef %addr, i64 noundef %val, i32 %size) #3 {
entry:
  switch i64 %addr, label %if.end [
    i64 51, label %if.then
    i64 47, label %if.then
    i64 43, label %if.then
  ]

if.then:                                          ; preds = %entry, %entry, %entry
  %sub = add nuw nsw i64 %addr, 17179869141
  %div5 = lshr exact i64 %sub, 2
  %big_endian = getelementptr inbounds nuw i8, ptr %opaque, i64 4384
  %idxprom = and i64 %div5, 4294967295
  %arrayidx = getelementptr [3 x i8], ptr %big_endian, i64 0, i64 %idxprom
  %0 = trunc i64 %val to i8
  %frombool = and i8 %0, 1
  store i8 %frombool, ptr %arrayidx, align 1
  br label %if.end

if.end:                                           ; preds = %entry, %if.then
  ret void
}